; Function Attrs: nounwind uwtable
define ptr @l_LLVM_buildGEP2___boxed(ptr noundef %0, ptr noundef %1, ptr noundef %2, ptr noundef %3, ptr noundef %4, ptr noundef %5, ptr noundef %6) local_unnamed_addr #1 {
  %8 = getelementptr i8, ptr %0, i64 8
  %.val30 = load i64, ptr %8, align 8, !tbaa !13
  %9 = ptrtoint ptr %0 to i64
  %10 = and i64 %9, 1
  %.not = icmp eq i64 %10, 0
  br i1 %.not, label %11, label %lean_dec.exit19

11:                                               ; preds = %7
  %12 = load i32, ptr %0, align 4, !tbaa !4
  %13 = icmp sgt i32 %12, 1
  br i1 %13, label %14, label %16, !prof !15

14:                                               ; preds = %11
  %15 = add nsw i32 %12, -1
  store i32 %15, ptr %0, align 4, !tbaa !4
  br label %lean_dec.exit19

16:                                               ; preds = %11
  %.not.i = icmp eq i32 %12, 0
  br i1 %.not.i, label %lean_dec.exit19, label %17

17:                                               ; preds = %16
  tail call void @lean_dec_ref_cold(ptr noundef nonnull %0) #4
  br label %lean_dec.exit19

lean_dec.exit19:                                  ; preds = %17, %16, %14, %7
  %18 = getelementptr i8, ptr %1, i64 8
  %.val29 = load i64, ptr %18, align 8, !tbaa !13
  %19 = ptrtoint ptr %1 to i64
  %20 = and i64 %19, 1
  %.not31 = icmp eq i64 %20, 0
  br i1 %.not31, label %21, label %lean_dec.exit18

21:                                               ; preds = %lean_dec.exit19
  %22 = load i32, ptr %1, align 4, !tbaa !4
  %23 = icmp sgt i32 %22, 1
  br i1 %23, label %24, label %26, !prof !15

24:                                               ; preds = %21
  %25 = add nsw i32 %22, -1
  store i32 %25, ptr %1, align 4, !tbaa !4
  br label %lean_dec.exit18

26:                                               ; preds = %21
  %.not.i20 = icmp eq i32 %22, 0
  br i1 %.not.i20, label %lean_dec.exit18, label %27

27:                                               ; preds = %26
  tail call void @lean_dec_ref_cold(ptr noundef nonnull %1) #4
  br label %lean_dec.exit18

lean_dec.exit18:                                  ; preds = %27, %26, %24, %lean_dec.exit19
  %28 = getelementptr i8, ptr %2, i64 8
  %.val28 = load i64, ptr %28, align 8, !tbaa !13
  %29 = ptrtoint ptr %2 to i64
  %30 = and i64 %29, 1
  %.not32 = icmp eq i64 %30, 0
  br i1 %.not32, label %31, label %lean_dec.exit17

31:                                               ; preds = %lean_dec.exit18
  %32 = load i32, ptr %2, align 4, !tbaa !4
  %33 = icmp sgt i32 %32, 1
  br i1 %33, label %34, label %36, !prof !15

34:                                               ; preds = %31
  %35 = add nsw i32 %32, -1
  store i32 %35, ptr %2, align 4, !tbaa !4
  br label %lean_dec.exit17

36:                                               ; preds = %31
  %.not.i22 = icmp eq i32 %32, 0
  br i1 %.not.i22, label %lean_dec.exit17, label %37

37:                                               ; preds = %36
  tail call void @lean_dec_ref_cold(ptr noundef nonnull %2) #4
  br label %lean_dec.exit17

lean_dec.exit17:                                  ; preds = %37, %36, %34, %lean_dec.exit18
  %38 = getelementptr i8, ptr %3, i64 8
  %.val = load i64, ptr %38, align 8, !tbaa !13
  %39 = ptrtoint ptr %3 to i64
  %40 = and i64 %39, 1
  %.not33 = icmp eq i64 %40, 0
  br i1 %.not33, label %41, label %lean_dec.exit16

41:                                               ; preds = %lean_dec.exit17
  %42 = load i32, ptr %3, align 4, !tbaa !4
  %43 = icmp sgt i32 %42, 1
  br i1 %43, label %44, label %46, !prof !15

44:                                               ; preds = %41
  %45 = add nsw i32 %42, -1
  store i32 %45, ptr %3, align 4, !tbaa !4
  br label %lean_dec.exit16

46:                                               ; preds = %41
  %.not.i24 = icmp eq i32 %42, 0
  br i1 %.not.i24, label %lean_dec.exit16, label %47

47:                                               ; preds = %46
  tail call void @lean_dec_ref_cold(ptr noundef nonnull %3) #4
  br label %lean_dec.exit16

lean_dec.exit16:                                  ; preds = %47, %46, %44, %lean_dec.exit17
  %48 = tail call ptr @lean_llvm_build_gep2(i64 noundef %.val30, i64 noundef %.val29, i64 noundef %.val28, i64 noundef %.val, ptr noundef %4, ptr noundef %5, ptr noundef %6) #4
  %49 = ptrtoint ptr %4 to i64
  %50 = and i64 %49, 1
  %.not34 = icmp eq i64 %50, 0
  br i1 %.not34, label %51, label %lean_dec.exit

51:                                               ; preds = %lean_dec.exit16
  %52 = load i32, ptr %4, align 4, !tbaa !4
  %53 = icmp sgt i32 %52, 1
  br i1 %53, label %54, label %56, !prof !15

54:                                               ; preds = %51
  %55 = add nsw i32 %52, -1
  store i32 %55, ptr %4, align 4, !tbaa !4
  br label %lean_dec.exit

56:                                               ; preds = %51
  %.not.i26 = icmp eq i32 %52, 0
  br i1 %.not.i26, label %lean_dec.exit, label %57

57:                                               ; preds = %56
  tail call void @lean_dec_ref_cold(ptr noundef nonnull %4) #4
  br label %lean_dec.exit

lean_dec.exit:                                    ; preds = %57, %56, %54, %lean_dec.exit16
  ret ptr %48
}